; ModuleID = '11/98.c'
source_filename = "11/98.c"
target datalayout = "e-m:e-p270:32:32-p271:32:32-p272:64:64-i64:64-f80:128-n8:16:32:64-S128"
target triple = "x86_64-pc-linux-gnu"

@__const.main.p = private unnamed_addr constant [13 x i32] [i32 0, i32 31, i32 28, i32 31, i32 30, i32 31, i32 30, i32 31, i32 31, i32 30, i32 31, i32 30, i32 31], align 16
@.str = private unnamed_addr constant [10 x i8] c"%d %d %d\0A\00", align 1
@.str.1 = private unnamed_addr constant [3 x i8] c"%d\00", align 1

; Function Attrs: noinline nounwind uwtable
define dso_local i32 @main(i32 %0, i8** %1) #0 {
  %3 = alloca i32, align 4
  %4 = alloca i32, align 4
  %5 = alloca i8**, align 8
  %6 = alloca i32, align 4
  %7 = alloca i32, align 4
  %8 = alloca i32, align 4
  %9 = alloca i32, align 4
  %10 = alloca i32, align 4
  %11 = alloca i32, align 4
  %12 = alloca [13 x i32], align 16
  store i32 0, i32* %3, align 4
  store i32 %0, i32* %4, align 4
  store i8** %1, i8*** %5, align 8
  store i32 0, i32* %10, align 4
  store i32 1, i32* %11, align 4
  %13 = bitcast [13 x i32]* %12 to i8*
  call void @llvm.memcpy.p0i8.p0i8.i64(i8* align 16 %13, i8* align 16 bitcast ([13 x i32]* @__const.main.p to i8*), i64 52, i1 false)
  %14 = call i32 (i8*, ...) @__isoc99_scanf(i8* getelementptr inbounds ([10 x i8], [10 x i8]* @.str, i64 0, i64 0), i32* %6, i32* %7, i32* %8)
  store i32 1, i32* %11, align 4
  br label %15

15:                                               ; preds = %28, %2
  %16 = load i32, i32* %11, align 4
  %17 = load i32, i32* %7, align 4
  %18 = add nsw i32 %17, 1
  %19 = icmp slt i32 %16, %18
  br i1 %19, label %20, label %31

20:                                               ; preds = %15
  %21 = load i32, i32* %10, align 4
  %22 = load i32, i32* %11, align 4
  %23 = sub nsw i32 %22, 1
  %24 = sext i32 %23 to i64
  %25 = getelementptr inbounds [13 x i32], [13 x i32]* %12, i64 0, i64 %24
  %26 = load i32, i32* %25, align 4
  %27 = add nsw i32 %21, %26
  store i32 %27, i32* %10, align 4
  br label %28

28:                                               ; preds = %20
  %29 = load i32, i32* %11, align 4
  %30 = add nsw i32 %29, 1
  store i32 %30, i32* %11, align 4
  br label %15

31:                                               ; preds = %15
  %32 = load i32, i32* %6, align 4
  %33 = srem i32 %32, 4
  %34 = icmp eq i32 %33, 0
  br i1 %34, label %35, label %39

35:                                               ; preds = %31
  %36 = load i32, i32* %6, align 4
  %37 = srem i32 %36, 100
  %38 = icmp ne i32 %37, 0
  br i1 %38, label %43, label %39

39:                                               ; preds = %35, %31
  %40 = load i32, i32* %6, align 4
  %41 = srem i32 %40, 400
  %42 = icmp eq i32 %41, 0
  br i1 %42, label %43, label %52

43:                                               ; preds = %39, %35
  %44 = load i32, i32* %7, align 4
  %45 = icmp sge i32 %44, 3
  br i1 %45, label %46, label %49

46:                                               ; preds = %43
  %47 = load i32, i32* %10, align 4
  %48 = add nsw i32 %47, 1
  store i32 %48, i32* %10, align 4
  br label %51

49:                                               ; preds = %43
  %50 = load i32, i32* %10, align 4
  store i32 %50, i32* %10, align 4
  br label %51

51:                                               ; preds = %49, %46
  br label %52

52:                                               ; preds = %51, %39
  %53 = load i32, i32* %10, align 4
  %54 = load i32, i32* %8, align 4
  %55 = add nsw i32 %53, %54
  store i32 %55, i32* %9, align 4
  %56 = load i32, i32* %9, align 4
  %57 = call i32 (i8*, ...) @printf(i8* getelementptr inbounds ([3 x i8], [3 x i8]* @.str.1, i64 0, i64 0), i32 %56)
  ret i32 0
}

; Function Attrs: argmemonly nounwind willreturn
declare void @llvm.memcpy.p0i8.p0i8.i64(i8* noalias nocapture writeonly, i8* noalias nocapture readonly, i64, i1 immarg) #1

declare dso_local i32 @__isoc99_scanf(i8*, ...) #2

declare dso_local i32 @printf(i8*, ...) #2


!llvm.module.flags = !{!0}
!llvm.ident = !{!1}

!0 = !{i32 1, !"wchar_size", i32 4}
!1 = !{!"clang version 10.0.0-4ubuntu1 "}
