; ModuleID = 'source-C-CXX/10/98.c'
source_filename = "source-C-CXX/10/98.c"
target datalayout = "e-m:e-p270:32:32-p271:32:32-p272:64:64-i64:64-f80:128-n8:16:32:64-S128"
target triple = "x86_64-pc-linux-gnu"

@__const.main.p = private unnamed_addr constant [13 x i32] [i32 0, i32 31, i32 28, i32 31, i32 30, i32 31, i32 30, i32 31, i32 31, i32 30, i32 31, i32 30, i32 31], align 16
@.str = private unnamed_addr constant [10 x i8] c"%d %d %d\0A\00", align 1
@.str.1 = private unnamed_addr constant [3 x i8] c"%d\00", align 1

; Function Attrs: nofree nounwind sspstrong uwtable
define dso_local i32 @main(i32 %0, i8** nocapture readnone %1) local_unnamed_addr #0 {
  %3 = alloca i32, align 4
  %4 = alloca i32, align 4
  %5 = alloca i32, align 4
  %6 = bitcast i32* %3 to i8*
  call void @llvm.lifetime.start.p0i8(i64 4, i8* nonnull %6) #4
  %7 = bitcast i32* %4 to i8*
  call void @llvm.lifetime.start.p0i8(i64 4, i8* nonnull %7) #4
  %8 = bitcast i32* %5 to i8*
  call void @llvm.lifetime.start.p0i8(i64 4, i8* nonnull %8) #4
  %9 = call i32 (i8*, ...) @__isoc99_scanf(i8* getelementptr inbounds ([10 x i8], [10 x i8]* @.str, i64 0, i64 0), i32* nonnull %3, i32* nonnull %4, i32* nonnull %5)
  %10 = load i32, i32* %4, align 4, !tbaa !5
  %11 = icmp slt i32 %10, 1
  br i1 %11, label %111, label %12

12:                                               ; preds = %2
  %13 = add nuw i32 %10, 1
  %14 = zext i32 %13 to i64
  %15 = add nsw i64 %14, -1
  %16 = icmp ult i64 %15, 8
  br i1 %16, label %99, label %17

17:                                               ; preds = %12
  %18 = and i64 %15, -8
  %19 = or i64 %18, 1
  %20 = add nsw i64 %18, -8
  %21 = lshr exact i64 %20, 3
  %22 = add nuw nsw i64 %21, 1
  %23 = and i64 %22, 3
  %24 = icmp ult i64 %20, 24
  br i1 %24, label %70, label %25

25:                                               ; preds = %17
  %26 = and i64 %22, 4611686018427387900
  br label %27

27:                                               ; preds = %27, %25
  %28 = phi i64 [ 0, %25 ], [ %67, %27 ]
  %29 = phi <4 x i32> [ zeroinitializer, %25 ], [ %65, %27 ]
  %30 = phi <4 x i32> [ zeroinitializer, %25 ], [ %66, %27 ]
  %31 = phi i64 [ %26, %25 ], [ %68, %27 ]
  %32 = getelementptr inbounds [13 x i32], [13 x i32]* @__const.main.p, i64 0, i64 %28
  %33 = bitcast i32* %32 to <4 x i32>*
  %34 = load <4 x i32>, <4 x i32>* %33, align 16, !tbaa !5
  %35 = getelementptr inbounds i32, i32* %32, i64 4
  %36 = bitcast i32* %35 to <4 x i32>*
  %37 = load <4 x i32>, <4 x i32>* %36, align 16, !tbaa !5
  %38 = add <4 x i32> %34, %29
  %39 = add <4 x i32> %37, %30
  %40 = or i64 %28, 8
  %41 = getelementptr inbounds [13 x i32], [13 x i32]* @__const.main.p, i64 0, i64 %40
  %42 = bitcast i32* %41 to <4 x i32>*
  %43 = load <4 x i32>, <4 x i32>* %42, align 16, !tbaa !5
  %44 = getelementptr inbounds i32, i32* %41, i64 4
  %45 = bitcast i32* %44 to <4 x i32>*
  %46 = load <4 x i32>, <4 x i32>* %45, align 16, !tbaa !5
  %47 = add <4 x i32> %43, %38
  %48 = add <4 x i32> %46, %39
  %49 = or i64 %28, 16
  %50 = getelementptr inbounds [13 x i32], [13 x i32]* @__const.main.p, i64 0, i64 %49
  %51 = bitcast i32* %50 to <4 x i32>*
  %52 = load <4 x i32>, <4 x i32>* %51, align 16, !tbaa !5
  %53 = getelementptr inbounds i32, i32* %50, i64 4
  %54 = bitcast i32* %53 to <4 x i32>*
  %55 = load <4 x i32>, <4 x i32>* %54, align 16, !tbaa !5
  %56 = add <4 x i32> %52, %47
  %57 = add <4 x i32> %55, %48
  %58 = or i64 %28, 24
  %59 = getelementptr inbounds [13 x i32], [13 x i32]* @__const.main.p, i64 0, i64 %58
  %60 = bitcast i32* %59 to <4 x i32>*
  %61 = load <4 x i32>, <4 x i32>* %60, align 16, !tbaa !5
  %62 = getelementptr inbounds i32, i32* %59, i64 4
  %63 = bitcast i32* %62 to <4 x i32>*
  %64 = load <4 x i32>, <4 x i32>* %63, align 16, !tbaa !5
  %65 = add <4 x i32> %61, %56
  %66 = add <4 x i32> %64, %57
  %67 = add nuw i64 %28, 32
  %68 = add i64 %31, -4
  %69 = icmp eq i64 %68, 0
  br i1 %69, label %70, label %27, !llvm.loop !9

70:                                               ; preds = %27, %17
  %71 = phi <4 x i32> [ undef, %17 ], [ %65, %27 ]
  %72 = phi <4 x i32> [ undef, %17 ], [ %66, %27 ]
  %73 = phi i64 [ 0, %17 ], [ %67, %27 ]
  %74 = phi <4 x i32> [ zeroinitializer, %17 ], [ %65, %27 ]
  %75 = phi <4 x i32> [ zeroinitializer, %17 ], [ %66, %27 ]
  %76 = icmp eq i64 %23, 0
  br i1 %76, label %93, label %77

77:                                               ; preds = %70, %77
  %78 = phi i64 [ %90, %77 ], [ %73, %70 ]
  %79 = phi <4 x i32> [ %88, %77 ], [ %74, %70 ]
  %80 = phi <4 x i32> [ %89, %77 ], [ %75, %70 ]
  %81 = phi i64 [ %91, %77 ], [ %23, %70 ]
  %82 = getelementptr inbounds [13 x i32], [13 x i32]* @__const.main.p, i64 0, i64 %78
  %83 = bitcast i32* %82 to <4 x i32>*
  %84 = load <4 x i32>, <4 x i32>* %83, align 16, !tbaa !5
  %85 = getelementptr inbounds i32, i32* %82, i64 4
  %86 = bitcast i32* %85 to <4 x i32>*
  %87 = load <4 x i32>, <4 x i32>* %86, align 16, !tbaa !5
  %88 = add <4 x i32> %84, %79
  %89 = add <4 x i32> %87, %80
  %90 = add nuw i64 %78, 8
  %91 = add i64 %81, -1
  %92 = icmp eq i64 %91, 0
  br i1 %92, label %93, label %77, !llvm.loop !12

93:                                               ; preds = %77, %70
  %94 = phi <4 x i32> [ %71, %70 ], [ %88, %77 ]
  %95 = phi <4 x i32> [ %72, %70 ], [ %89, %77 ]
  %96 = add <4 x i32> %95, %94
  %97 = call i32 @llvm.vector.reduce.add.v4i32(<4 x i32> %96)
  %98 = icmp eq i64 %15, %18
  br i1 %98, label %111, label %99

99:                                               ; preds = %12, %93
  %100 = phi i64 [ 1, %12 ], [ %19, %93 ]
  %101 = phi i32 [ 0, %12 ], [ %97, %93 ]
  br label %102

102:                                              ; preds = %99, %102
  %103 = phi i64 [ %109, %102 ], [ %100, %99 ]
  %104 = phi i32 [ %108, %102 ], [ %101, %99 ]
  %105 = add nsw i64 %103, -1
  %106 = getelementptr inbounds [13 x i32], [13 x i32]* @__const.main.p, i64 0, i64 %105
  %107 = load i32, i32* %106, align 4, !tbaa !5
  %108 = add nsw i32 %107, %104
  %109 = add nuw nsw i64 %103, 1
  %110 = icmp eq i64 %109, %14
  br i1 %110, label %111, label %102, !llvm.loop !14

111:                                              ; preds = %102, %93, %2
  %112 = phi i32 [ 0, %2 ], [ %97, %93 ], [ %108, %102 ]
  %113 = load i32, i32* %3, align 4, !tbaa !5
  %114 = and i32 %113, 3
  %115 = icmp ne i32 %114, 0
  %116 = srem i32 %113, 100
  %117 = icmp eq i32 %116, 0
  %118 = or i1 %115, %117
  br i1 %118, label %119, label %124

119:                                              ; preds = %111
  %120 = srem i32 %113, 400
  %121 = icmp eq i32 %120, 0
  %122 = icmp sgt i32 %10, 2
  %123 = select i1 %121, i1 %122, i1 false
  br i1 %123, label %126, label %128

124:                                              ; preds = %111
  %125 = icmp sgt i32 %10, 2
  br i1 %125, label %126, label %128

126:                                              ; preds = %119, %124
  %127 = add nsw i32 %112, 1
  br label %128

128:                                              ; preds = %124, %126, %119
  %129 = phi i32 [ %127, %126 ], [ %112, %119 ], [ %112, %124 ]
  %130 = load i32, i32* %5, align 4, !tbaa !5
  %131 = add nsw i32 %130, %129
  %132 = call i32 (i8*, ...) @printf(i8* nonnull dereferenceable(1) getelementptr inbounds ([3 x i8], [3 x i8]* @.str.1, i64 0, i64 0), i32 %131)
  call void @llvm.lifetime.end.p0i8(i64 4, i8* nonnull %8) #4
  call void @llvm.lifetime.end.p0i8(i64 4, i8* nonnull %7) #4
  call void @llvm.lifetime.end.p0i8(i64 4, i8* nonnull %6) #4
  ret i32 0
}

; Function Attrs: argmemonly mustprogress nofree nosync nounwind willreturn
declare void @llvm.lifetime.start.p0i8(i64 immarg, i8* nocapture) #1

; Function Attrs: nofree nounwind
declare noundef i32 @__isoc99_scanf(i8* nocapture noundef readonly, ...) local_unnamed_addr #2

; Function Attrs: nofree nounwind
declare noundef i32 @printf(i8* nocapture noundef readonly, ...) local_unnamed_addr #2

; Function Attrs: argmemonly mustprogress nofree nosync nounwind willreturn
declare void @llvm.lifetime.end.p0i8(i64 immarg, i8* nocapture) #1

; Function Attrs: nofree nosync nounwind readnone willreturn
declare i32 @llvm.vector.reduce.add.v4i32(<4 x i32>) #3


!llvm.module.flags = !{!0, !1, !2, !3}
!llvm.ident = !{!4}

!0 = !{i32 1, !"wchar_size", i32 4}
!1 = !{i32 7, !"PIC Level", i32 2}
!2 = !{i32 7, !"PIE Level", i32 2}
!3 = !{i32 7, !"uwtable", i32 1}
!4 = !{!"clang version 13.0.0"}
!5 = !{!6, !6, i64 0}
!6 = !{!"int", !7, i64 0}
!7 = !{!"omnipotent char", !8, i64 0}
!8 = !{!"Simple C/C++ TBAA"}
!9 = distinct !{!9, !10, !11}
!10 = !{!"llvm.loop.mustprogress"}
!11 = !{!"llvm.loop.isvectorized", i32 1}
!12 = distinct !{!12, !13}
!13 = !{!"llvm.loop.unroll.disable"}
!14 = distinct !{!14, !10, !15, !11}
!15 = !{!"llvm.loop.unroll.runtime.disable"}
